target datalayout = "e-m:e-p270:32:32-p271:32:32-p272:64:64-i64:64-i128:128-f80:128-n8:16:32:64-S128"
target triple = "x86_64-pc-linux-gnu"

%struct.load_arg = type { i64, ptr, i64, i64, i64, ptr, ptr, ptr, i64, ptr, i8 }

; Function Attrs: nounwind sspstrong uwtable
define internal i64 @memsize_load_arg(ptr noundef %0) #0 {
  %2 = alloca ptr, align 8
  %3 = alloca ptr, align 8
  %4 = alloca i64, align 8
  store ptr %0, ptr %2, align 8, !tbaa !11
  call void @llvm.lifetime.start.p0(i64 8, ptr %3) #23
  %5 = load ptr, ptr %2, align 8, !tbaa !11
  store ptr %5, ptr %3, align 8, !tbaa !33
  call void @llvm.lifetime.start.p0(i64 8, ptr %4) #23
  store i64 0, ptr %4, align 8, !tbaa !7
  %6 = load ptr, ptr %3, align 8, !tbaa !33
  %7 = getelementptr inbounds nuw %struct.load_arg, ptr %6, i32 0, i32 5
  %8 = load ptr, ptr %7, align 8, !tbaa !51
  %9 = icmp ne ptr %8, null
  br i1 %9, label %10, label %17

10:                                               ; preds = %1
  %11 = load ptr, ptr %3, align 8, !tbaa !33
  %12 = getelementptr inbounds nuw %struct.load_arg, ptr %11, i32 0, i32 5
  %13 = load ptr, ptr %12, align 8, !tbaa !51
  %14 = call i64 @rb_st_memsize(ptr noundef %13) #27
  %15 = load i64, ptr %4, align 8, !tbaa !7
  %16 = add i64 %15, %14
  store i64 %16, ptr %4, align 8, !tbaa !7
  br label %17

17:                                               ; preds = %10, %1
  %18 = load ptr, ptr %3, align 8, !tbaa !33
  %19 = getelementptr inbounds nuw %struct.load_arg, ptr %18, i32 0, i32 6
  %20 = load ptr, ptr %19, align 8, !tbaa !52
  %21 = icmp ne ptr %20, null
  br i1 %21, label %22, label %29

22:                                               ; preds = %17
  %23 = load ptr, ptr %3, align 8, !tbaa !33
  %24 = getelementptr inbounds nuw %struct.load_arg, ptr %23, i32 0, i32 6
  %25 = load ptr, ptr %24, align 8, !tbaa !52
  %26 = call i64 @rb_st_memsize(ptr noundef %25) #27
  %27 = load i64, ptr %4, align 8, !tbaa !7
  %28 = add i64 %27, %26
  store i64 %28, ptr %4, align 8, !tbaa !7
  br label %29

29:                                               ; preds = %22, %17
  %30 = load ptr, ptr %3, align 8, !tbaa !33
  %31 = getelementptr inbounds nuw %struct.load_arg, ptr %30, i32 0, i32 7
  %32 = load ptr, ptr %31, align 8, !tbaa !53
  %33 = icmp ne ptr %32, null
  br i1 %33, label %34, label %41

34:                                               ; preds = %29
  %35 = load ptr, ptr %3, align 8, !tbaa !33
  %36 = getelementptr inbounds nuw %struct.load_arg, ptr %35, i32 0, i32 7
  %37 = load ptr, ptr %36, align 8, !tbaa !53
  %38 = call i64 @rb_st_memsize(ptr noundef %37) #27
  %39 = load i64, ptr %4, align 8, !tbaa !7
  %40 = add i64 %39, %38
  store i64 %40, ptr %4, align 8, !tbaa !7
  br label %41

41:                                               ; preds = %34, %29
  %42 = load ptr, ptr %3, align 8, !tbaa !33
  %43 = getelementptr inbounds nuw %struct.load_arg, ptr %42, i32 0, i32 9
  %44 = load ptr, ptr %43, align 8, !tbaa !54
  %45 = icmp ne ptr %44, null
  br i1 %45, label %46, label %53

46:                                               ; preds = %41
  %47 = load ptr, ptr %3, align 8, !tbaa !33
  %48 = getelementptr inbounds nuw %struct.load_arg, ptr %47, i32 0, i32 9
  %49 = load ptr, ptr %48, align 8, !tbaa !54
  %50 = call i64 @rb_st_memsize(ptr noundef %49) #27
  %51 = load i64, ptr %4, align 8, !tbaa !7
  %52 = add i64 %51, %50
  store i64 %52, ptr %4, align 8, !tbaa !7
  br label %53

53:                                               ; preds = %46, %41
  %54 = load i64, ptr %4, align 8, !tbaa !7
  call void @llvm.lifetime.end.p0(i64 8, ptr %4) #23
  call void @llvm.lifetime.end.p0(i64 8, ptr %3) #23
  ret i64 %54
}