; Function Attrs: mustprogress nofree nounwind sspstrong willreturn memory(read) uwtable
define internal i64 @memsize_load_arg(ptr noundef readonly captures(none) %0) #10 {
  %2 = getelementptr inbounds nuw i8, ptr %0, i64 40
  %3 = load ptr, ptr %2, align 8, !tbaa !47
  %.not = icmp eq ptr %3, null
  br i1 %.not, label %6, label %4

4:                                                ; preds = %1
  %5 = tail call i64 @rb_st_memsize(ptr noundef nonnull %3) #27
  br label %6

6:                                                ; preds = %4, %1
  %.0 = phi i64 [ %5, %4 ], [ 0, %1 ]
  %7 = getelementptr inbounds nuw i8, ptr %0, i64 48
  %8 = load ptr, ptr %7, align 8, !tbaa !48
  %.not17 = icmp eq ptr %8, null
  br i1 %.not17, label %12, label %9

9:                                                ; preds = %6
  %10 = tail call i64 @rb_st_memsize(ptr noundef nonnull %8) #27
  %11 = add i64 %10, %.0
  br label %12

12:                                               ; preds = %9, %6
  %.1 = phi i64 [ %11, %9 ], [ %.0, %6 ]
  %13 = getelementptr inbounds nuw i8, ptr %0, i64 56
  %14 = load ptr, ptr %13, align 8, !tbaa !49
  %.not18 = icmp eq ptr %14, null
  br i1 %.not18, label %18, label %15

15:                                               ; preds = %12
  %16 = tail call i64 @rb_st_memsize(ptr noundef nonnull %14) #27
  %17 = add i64 %16, %.1
  br label %18

18:                                               ; preds = %15, %12
  %.2 = phi i64 [ %17, %15 ], [ %.1, %12 ]
  %19 = getelementptr inbounds nuw i8, ptr %0, i64 72
  %20 = load ptr, ptr %19, align 8, !tbaa !54
  %.not19 = icmp eq ptr %20, null
  br i1 %.not19, label %24, label %21

21:                                               ; preds = %18
  %22 = tail call i64 @rb_st_memsize(ptr noundef nonnull %20) #27
  %23 = add i64 %22, %.2
  br label %24

24:                                               ; preds = %21, %18
  %.3 = phi i64 [ %23, %21 ], [ %.2, %18 ]
  ret i64 %.3
}